target datalayout = "e-m:e-p270:32:32-p271:32:32-p272:64:64-i64:64-i128:128-f80:128-n8:16:32:64-S128"
target triple = "x86_64-pc-linux-gnu"

%struct.functionInfo = type { ptr, ptr, ptr, ptr, i64 }
%struct.functionsLibCtx = type { ptr, ptr, i64, ptr }
%struct.client = type { i64, i64, ptr, i8, i8, i8, i8, i32, ptr, ptr, ptr, ptr, ptr, i64, i64, i32, ptr, i32, i32, ptr, i64, ptr, ptr, ptr, ptr, ptr, i32, i32, i64, ptr, i64, ptr, i64, i64, i64, i32, ptr, i64, i64, i32, i32, i32, i32, i64, i64, ptr, i64, i64, i64, i64, i64, i64, i64, i64, [41 x i8], i32, ptr, i32, i32, i64, %struct.multiState, %struct.blockingState, i64, ptr, ptr, ptr, ptr, ptr, ptr, ptr, ptr, ptr, ptr, ptr, ptr, ptr, ptr, i64, ptr, i64, i32, ptr, ptr, ptr, i64, %struct.listNode, i64, i64, i32, i64, ptr }
%struct.multiState = type { ptr, i32, i32, i32, i64, i32 }
%struct.blockingState = type { i32, i64, i32, ptr, i32, i32, i64, ptr, ptr, i64 }
%struct.listNode = type { ptr, ptr, ptr }
%struct.redisObject = type { i32, i32, ptr }

@curr_functions_lib_ctx = internal global ptr null, align 8

; Function Attrs: nounwind uwtable
define dso_local i64 @fcallGetCommandFlags(ptr noundef %0, i64 noundef %1) #1 {
  %3 = alloca i64, align 8
  %4 = alloca ptr, align 8
  %5 = alloca i64, align 8
  %6 = alloca ptr, align 8
  %7 = alloca i32, align 4
  %8 = alloca ptr, align 8
  %9 = alloca i64, align 8
  store ptr %0, ptr %4, align 8, !tbaa !91
  store i64 %1, ptr %5, align 8, !tbaa !59
  call void @llvm.lifetime.start.p0(i64 8, ptr %6) #11
  %10 = load ptr, ptr %4, align 8, !tbaa !91
  %11 = getelementptr inbounds nuw %struct.client, ptr %10, i32 0, i32 16
  %12 = load ptr, ptr %11, align 8, !tbaa !107
  %13 = getelementptr inbounds ptr, ptr %12, i64 1
  %14 = load ptr, ptr %13, align 8, !tbaa !108
  store ptr %14, ptr %6, align 8, !tbaa !108
  %15 = load ptr, ptr @curr_functions_lib_ctx, align 8, !tbaa !38
  %16 = getelementptr inbounds nuw %struct.functionsLibCtx, ptr %15, i32 0, i32 1
  %17 = load ptr, ptr %16, align 8, !tbaa !40
  %18 = load ptr, ptr %6, align 8, !tbaa !108
  %19 = getelementptr inbounds nuw %struct.redisObject, ptr %18, i32 0, i32 2
  %20 = load ptr, ptr %19, align 8, !tbaa !109
  %21 = call ptr @dictFind(ptr noundef %17, ptr noundef %20)
  %22 = load ptr, ptr %4, align 8, !tbaa !91
  %23 = getelementptr inbounds nuw %struct.client, ptr %22, i32 0, i32 36
  store ptr %21, ptr %23, align 8, !tbaa !130
  %24 = load ptr, ptr %4, align 8, !tbaa !91
  %25 = getelementptr inbounds nuw %struct.client, ptr %24, i32 0, i32 36
  %26 = load ptr, ptr %25, align 8, !tbaa !130
  %27 = icmp ne ptr %26, null
  br i1 %27, label %30, label %28

28:                                               ; preds = %2
  %29 = load i64, ptr %5, align 8, !tbaa !59
  store i64 %29, ptr %3, align 8
  store i32 1, ptr %7, align 4
  br label %41

30:                                               ; preds = %2
  call void @llvm.lifetime.start.p0(i64 8, ptr %8) #11
  %31 = load ptr, ptr %4, align 8, !tbaa !91
  %32 = getelementptr inbounds nuw %struct.client, ptr %31, i32 0, i32 36
  %33 = load ptr, ptr %32, align 8, !tbaa !130
  %34 = call ptr @dictGetVal(ptr noundef %33)
  store ptr %34, ptr %8, align 8, !tbaa !25
  call void @llvm.lifetime.start.p0(i64 8, ptr %9) #11
  %35 = load ptr, ptr %8, align 8, !tbaa !25
  %36 = getelementptr inbounds nuw %struct.functionInfo, ptr %35, i32 0, i32 4
  %37 = load i64, ptr %36, align 8, !tbaa !63
  store i64 %37, ptr %9, align 8, !tbaa !59
  %38 = load i64, ptr %5, align 8, !tbaa !59
  %39 = load i64, ptr %9, align 8, !tbaa !59
  %40 = call i64 @scriptFlagsToCmdFlags(i64 noundef %38, i64 noundef %39)
  store i64 %40, ptr %3, align 8
  store i32 1, ptr %7, align 4
  call void @llvm.lifetime.end.p0(i64 8, ptr %9) #11
  call void @llvm.lifetime.end.p0(i64 8, ptr %8) #11
  br label %41

41:                                               ; preds = %30, %28
  call void @llvm.lifetime.end.p0(i64 8, ptr %6) #11
  %42 = load i64, ptr %3, align 8
  ret i64 %42
}