; Function Attrs: nounwind uwtable
define dso_local i64 @fcallGetCommandFlags(ptr noundef captures(none) initializes((240, 248)) %0, i64 noundef %1) local_unnamed_addr #1 {
  %3 = getelementptr inbounds nuw i8, ptr %0, i64 96
  %4 = load ptr, ptr %3, align 8, !tbaa !97
  %5 = getelementptr inbounds nuw i8, ptr %4, i64 8
  %6 = load ptr, ptr %5, align 8, !tbaa !98
  %7 = load ptr, ptr @curr_functions_lib_ctx, align 8, !tbaa !40
  %8 = getelementptr inbounds nuw i8, ptr %7, i64 8
  %9 = load ptr, ptr %8, align 8, !tbaa !33
  %10 = getelementptr inbounds nuw i8, ptr %6, i64 8
  %11 = load ptr, ptr %10, align 8, !tbaa !99
  %12 = tail call ptr @dictFind(ptr noundef %9, ptr noundef %11) #12
  %13 = getelementptr inbounds nuw i8, ptr %0, i64 240
  store ptr %12, ptr %13, align 8, !tbaa !120
  %.not = icmp eq ptr %12, null
  br i1 %.not, label %19, label %14

14:                                               ; preds = %2
  %15 = tail call ptr @dictGetVal(ptr noundef nonnull %12) #12
  %16 = getelementptr inbounds nuw i8, ptr %15, i64 32
  %17 = load i64, ptr %16, align 8, !tbaa !110
  %18 = tail call i64 @scriptFlagsToCmdFlags(i64 noundef %1, i64 noundef %17) #12
  br label %19

19:                                               ; preds = %2, %14
  %.0 = phi i64 [ %18, %14 ], [ %1, %2 ]
  ret i64 %.0
}